; Function Attrs: mustprogress uwtable
define internal fastcc void @_ZL18stbiw__write_pixelP19stbi__write_contextiiiiPh(ptr noundef nonnull %0, i32 noundef %1, i32 noundef range(i32 0, 2) %2, i32 noundef range(i32 0, 2) %3, ptr noundef readonly captures(none) %4) unnamed_addr #4 {
  %6 = alloca [3 x i8], align 1
  call void @llvm.lifetime.start.p0(i64 3, ptr nonnull %6) #35
  switch i32 %1, label %109 [
    i32 2, label %7
    i32 1, label %7
    i32 4, label %39
    i32 3, label %81
  ]

7:                                                ; preds = %5, %5
  %.not33 = icmp eq i32 %3, 0
  %8 = load i8, ptr %4, align 1, !tbaa !23
  %9 = getelementptr inbounds nuw i8, ptr %0, i64 80
  %10 = load i32, ptr %9, align 8, !tbaa !314
  %11 = sext i32 %10 to i64
  br i1 %.not33, label %29, label %12

12:                                               ; preds = %7
  %13 = add nsw i64 %11, 3
  %14 = icmp ult i64 %13, 65
  br i1 %14, label %_ZL13stbiw__write3P19stbi__write_contexthhh.exit, label %15

15:                                               ; preds = %12
  %16 = load ptr, ptr %0, align 8, !tbaa !311
  %17 = getelementptr inbounds nuw i8, ptr %0, i64 8
  %18 = load ptr, ptr %17, align 8, !tbaa !313
  %19 = getelementptr inbounds nuw i8, ptr %0, i64 16
  tail call void %16(ptr noundef %18, ptr noundef nonnull %19, i32 noundef %10)
  br label %_ZL13stbiw__write3P19stbi__write_contexthhh.exit

_ZL13stbiw__write3P19stbi__write_contexthhh.exit: ; preds = %12, %15
  %20 = phi i32 [ 0, %15 ], [ %10, %12 ]
  %21 = add nsw i32 %20, 3
  store i32 %21, ptr %9, align 8, !tbaa !314
  %22 = getelementptr inbounds nuw i8, ptr %0, i64 16
  %23 = sext i32 %20 to i64
  %24 = getelementptr inbounds [64 x i8], ptr %22, i64 0, i64 %23
  store i8 %8, ptr %24, align 1, !tbaa !23
  %25 = add nsw i32 %20, 1
  %26 = sext i32 %25 to i64
  %27 = getelementptr inbounds [64 x i8], ptr %22, i64 0, i64 %26
  store i8 %8, ptr %27, align 1, !tbaa !23
  %28 = add nsw i32 %20, 2
  br label %.sink.split

29:                                               ; preds = %7
  %30 = add nsw i64 %11, 1
  %31 = icmp ult i64 %30, 65
  br i1 %31, label %_ZL13stbiw__write1P19stbi__write_contexth.exit, label %32

32:                                               ; preds = %29
  %33 = load ptr, ptr %0, align 8, !tbaa !311
  %34 = getelementptr inbounds nuw i8, ptr %0, i64 8
  %35 = load ptr, ptr %34, align 8, !tbaa !313
  %36 = getelementptr inbounds nuw i8, ptr %0, i64 16
  tail call void %33(ptr noundef %35, ptr noundef nonnull %36, i32 noundef %10)
  br label %_ZL13stbiw__write1P19stbi__write_contexth.exit

_ZL13stbiw__write1P19stbi__write_contexth.exit:   ; preds = %29, %32
  %37 = phi i32 [ 0, %32 ], [ %10, %29 ]
  %38 = add nsw i32 %37, 1
  store i32 %38, ptr %9, align 8, !tbaa !314
  br label %.sink.split

39:                                               ; preds = %5
  %.not = icmp eq i32 %2, 0
  br i1 %.not, label %.preheader, label %81

.preheader:                                       ; preds = %39
  %40 = getelementptr inbounds nuw i8, ptr %4, i64 3
  %41 = load i8, ptr %40, align 1, !tbaa !23
  %42 = zext i8 %41 to i32
  br label %43

43:                                               ; preds = %.preheader, %43
  %indvars.iv = phi i64 [ 0, %.preheader ], [ %indvars.iv.next, %43 ]
  %44 = getelementptr inbounds nuw [3 x i8], ptr @__const._ZL18stbiw__write_pixelP19stbi__write_contextiiiiPh.bg, i64 0, i64 %indvars.iv
  %45 = load i8, ptr %44, align 1, !tbaa !23
  %46 = zext i8 %45 to i32
  %47 = getelementptr inbounds nuw i8, ptr %4, i64 %indvars.iv
  %48 = load i8, ptr %47, align 1, !tbaa !23
  %49 = zext i8 %48 to i32
  %50 = sub nsw i32 %49, %46
  %51 = mul nsw i32 %50, %42
  %52 = sdiv i32 %51, 255
  %53 = trunc i32 %52 to i8
  %54 = add i8 %45, %53
  %55 = getelementptr inbounds nuw [3 x i8], ptr %6, i64 0, i64 %indvars.iv
  store i8 %54, ptr %55, align 1, !tbaa !23
  %indvars.iv.next = add nuw nsw i64 %indvars.iv, 1
  %exitcond.not = icmp eq i64 %indvars.iv.next, 3
  br i1 %exitcond.not, label %56, label %43, !llvm.loop !318

56:                                               ; preds = %43
  %57 = getelementptr inbounds nuw i8, ptr %6, i64 2
  %58 = load i8, ptr %57, align 1, !tbaa !23
  %59 = getelementptr inbounds nuw i8, ptr %6, i64 1
  %60 = load i8, ptr %59, align 1, !tbaa !23
  %61 = load i8, ptr %6, align 1, !tbaa !23
  %62 = getelementptr inbounds nuw i8, ptr %0, i64 80
  %63 = load i32, ptr %62, align 8, !tbaa !314
  %64 = sext i32 %63 to i64
  %65 = add nsw i64 %64, 3
  %66 = icmp ult i64 %65, 65
  br i1 %66, label %.thread, label %67

67:                                               ; preds = %56
  %68 = load ptr, ptr %0, align 8, !tbaa !311
  %69 = getelementptr inbounds nuw i8, ptr %0, i64 8
  %70 = load ptr, ptr %69, align 8, !tbaa !313
  %71 = getelementptr inbounds nuw i8, ptr %0, i64 16
  tail call void %68(ptr noundef %70, ptr noundef nonnull %71, i32 noundef %63)
  br label %.thread

.thread:                                          ; preds = %67, %56
  %72 = phi i32 [ 0, %67 ], [ %63, %56 ]
  %73 = add nsw i32 %72, 3
  store i32 %73, ptr %62, align 8, !tbaa !314
  %74 = getelementptr inbounds nuw i8, ptr %0, i64 16
  %75 = sext i32 %72 to i64
  %76 = getelementptr inbounds [64 x i8], ptr %74, i64 0, i64 %75
  store i8 %58, ptr %76, align 1, !tbaa !23
  %77 = add nsw i32 %72, 1
  %78 = sext i32 %77 to i64
  %79 = getelementptr inbounds [64 x i8], ptr %74, i64 0, i64 %78
  store i8 %60, ptr %79, align 1, !tbaa !23
  %80 = add nsw i32 %72, 2
  br label %.sink.split45

81:                                               ; preds = %39, %5
  %82 = getelementptr inbounds nuw i8, ptr %4, i64 2
  %83 = load i8, ptr %82, align 1, !tbaa !23
  %84 = getelementptr inbounds nuw i8, ptr %4, i64 1
  %85 = load i8, ptr %84, align 1, !tbaa !23
  %86 = load i8, ptr %4, align 1, !tbaa !23
  %87 = getelementptr inbounds nuw i8, ptr %0, i64 80
  %88 = load i32, ptr %87, align 8, !tbaa !314
  %89 = sext i32 %88 to i64
  %90 = add nsw i64 %89, 3
  %91 = icmp ult i64 %90, 65
  br i1 %91, label %_ZL13stbiw__write3P19stbi__write_contexthhh.exit36, label %92

92:                                               ; preds = %81
  %93 = load ptr, ptr %0, align 8, !tbaa !311
  %94 = getelementptr inbounds nuw i8, ptr %0, i64 8
  %95 = load ptr, ptr %94, align 8, !tbaa !313
  %96 = getelementptr inbounds nuw i8, ptr %0, i64 16
  tail call void %93(ptr noundef %95, ptr noundef nonnull %96, i32 noundef %88)
  br label %_ZL13stbiw__write3P19stbi__write_contexthhh.exit36

_ZL13stbiw__write3P19stbi__write_contexthhh.exit36: ; preds = %81, %92
  %97 = phi i32 [ 0, %92 ], [ %88, %81 ]
  %98 = add nsw i32 %97, 3
  store i32 %98, ptr %87, align 8, !tbaa !314
  %99 = getelementptr inbounds nuw i8, ptr %0, i64 16
  %100 = sext i32 %97 to i64
  %101 = getelementptr inbounds [64 x i8], ptr %99, i64 0, i64 %100
  store i8 %83, ptr %101, align 1, !tbaa !23
  %102 = add nsw i32 %97, 1
  %103 = sext i32 %102 to i64
  %104 = getelementptr inbounds [64 x i8], ptr %99, i64 0, i64 %103
  store i8 %85, ptr %104, align 1, !tbaa !23
  %105 = add nsw i32 %97, 2
  br label %.sink.split

.sink.split:                                      ; preds = %_ZL13stbiw__write3P19stbi__write_contexthhh.exit36, %_ZL13stbiw__write1P19stbi__write_contexth.exit, %_ZL13stbiw__write3P19stbi__write_contexthhh.exit
  %.sink44 = phi i32 [ %28, %_ZL13stbiw__write3P19stbi__write_contexthhh.exit ], [ %37, %_ZL13stbiw__write1P19stbi__write_contexth.exit ], [ %105, %_ZL13stbiw__write3P19stbi__write_contexthhh.exit36 ]
  %.sink = phi i8 [ %8, %_ZL13stbiw__write3P19stbi__write_contexthhh.exit ], [ %8, %_ZL13stbiw__write1P19stbi__write_contexth.exit ], [ %86, %_ZL13stbiw__write3P19stbi__write_contexthhh.exit36 ]
  %106 = getelementptr inbounds nuw i8, ptr %0, i64 16
  %107 = sext i32 %.sink44 to i64
  %108 = getelementptr inbounds [64 x i8], ptr %106, i64 0, i64 %107
  store i8 %.sink, ptr %108, align 1, !tbaa !23
  br label %109

109:                                              ; preds = %.sink.split, %5
  %.not34 = icmp eq i32 %2, 0
  br i1 %.not34, label %130, label %110

110:                                              ; preds = %109
  %111 = sext i32 %1 to i64
  %112 = getelementptr i8, ptr %4, i64 %111
  %113 = getelementptr i8, ptr %112, i64 -1
  %114 = load i8, ptr %113, align 1, !tbaa !23
  %115 = getelementptr inbounds nuw i8, ptr %0, i64 80
  %116 = load i32, ptr %115, align 8, !tbaa !314
  %117 = sext i32 %116 to i64
  %118 = add nsw i64 %117, 1
  %119 = icmp ult i64 %118, 65
  br i1 %119, label %_ZL13stbiw__write1P19stbi__write_contexth.exit37, label %120

120:                                              ; preds = %110
  %121 = load ptr, ptr %0, align 8, !tbaa !311
  %122 = getelementptr inbounds nuw i8, ptr %0, i64 8
  %123 = load ptr, ptr %122, align 8, !tbaa !313
  %124 = getelementptr inbounds nuw i8, ptr %0, i64 16
  tail call void %121(ptr noundef %123, ptr noundef nonnull %124, i32 noundef %116)
  br label %_ZL13stbiw__write1P19stbi__write_contexth.exit37

_ZL13stbiw__write1P19stbi__write_contexth.exit37: ; preds = %110, %120
  %125 = phi i32 [ 0, %120 ], [ %116, %110 ]
  %126 = add nsw i32 %125, 1
  store i32 %126, ptr %115, align 8, !tbaa !314
  br label %.sink.split45

.sink.split45:                                    ; preds = %_ZL13stbiw__write1P19stbi__write_contexth.exit37, %.thread
  %.sink50 = phi i32 [ %80, %.thread ], [ %125, %_ZL13stbiw__write1P19stbi__write_contexth.exit37 ]
  %.sink46 = phi i8 [ %61, %.thread ], [ %114, %_ZL13stbiw__write1P19stbi__write_contexth.exit37 ]
  %127 = getelementptr inbounds nuw i8, ptr %0, i64 16
  %128 = sext i32 %.sink50 to i64
  %129 = getelementptr inbounds [64 x i8], ptr %127, i64 0, i64 %128
  store i8 %.sink46, ptr %129, align 1, !tbaa !23
  br label %130

130:                                              ; preds = %.sink.split45, %109
  call void @llvm.lifetime.end.p0(i64 3, ptr nonnull %6) #35
  ret void
}